; ModuleID = 'source-C-CXX/56/1905.c'
source_filename = "source-C-CXX/56/1905.c"
target datalayout = "e-m:e-p270:32:32-p271:32:32-p272:64:64-i64:64-f80:128-n8:16:32:64-S128"
target triple = "x86_64-pc-linux-gnu"

@.str = private unnamed_addr constant [3 x i8] c"%d\00", align 1
@.str.1 = private unnamed_addr constant [3 x i8] c"%s\00", align 1

; Function Attrs: nofree nounwind sspstrong uwtable
define dso_local i32 @main() local_unnamed_addr #0 {
  %1 = alloca i32, align 4
  %2 = alloca [50 x [30 x i8]], align 16
  %3 = alloca [50 x i32], align 16
  %4 = bitcast i32* %1 to i8*
  call void @llvm.lifetime.start.p0i8(i64 4, i8* nonnull %4) #5
  %5 = call i32 (i8*, ...) @__isoc99_scanf(i8* getelementptr inbounds ([3 x i8], [3 x i8]* @.str, i64 0, i64 0), i32* nonnull %1)
  %6 = getelementptr inbounds [50 x [30 x i8]], [50 x [30 x i8]]* %2, i64 0, i64 0, i64 0
  call void @llvm.lifetime.start.p0i8(i64 1500, i8* nonnull %6) #5
  %7 = bitcast [50 x i32]* %3 to i8*
  call void @llvm.lifetime.start.p0i8(i64 200, i8* nonnull %7) #5
  %8 = load i32, i32* %1, align 4, !tbaa !5
  %9 = icmp sgt i32 %8, 0
  br i1 %9, label %12, label %64

10:                                               ; preds = %12
  %11 = icmp sgt i32 %20, 0
  br i1 %11, label %23, label %64

12:                                               ; preds = %0, %12
  %13 = phi i64 [ %19, %12 ], [ 0, %0 ]
  %14 = getelementptr inbounds [50 x [30 x i8]], [50 x [30 x i8]]* %2, i64 0, i64 %13, i64 0
  %15 = call i32 (i8*, ...) @__isoc99_scanf(i8* getelementptr inbounds ([3 x i8], [3 x i8]* @.str.1, i64 0, i64 0), i8* nonnull %14)
  %16 = call i64 @strlen(i8* noundef nonnull %14) #6
  %17 = trunc i64 %16 to i32
  %18 = getelementptr inbounds [50 x i32], [50 x i32]* %3, i64 0, i64 %13
  store i32 %17, i32* %18, align 4, !tbaa !5
  %19 = add nuw nsw i64 %13, 1
  %20 = load i32, i32* %1, align 4, !tbaa !5
  %21 = sext i32 %20 to i64
  %22 = icmp slt i64 %19, %21
  br i1 %22, label %12, label %10, !llvm.loop !9

23:                                               ; preds = %10, %58
  %24 = phi i64 [ %60, %58 ], [ 0, %10 ]
  %25 = getelementptr inbounds [50 x i32], [50 x i32]* %3, i64 0, i64 %24
  %26 = load i32, i32* %25, align 4, !tbaa !5
  %27 = add nsw i32 %26, -1
  %28 = sext i32 %27 to i64
  %29 = getelementptr inbounds [50 x [30 x i8]], [50 x [30 x i8]]* %2, i64 0, i64 %24, i64 %28
  %30 = load i8, i8* %29, align 1, !tbaa !11
  %31 = icmp eq i8 %30, 103
  br i1 %31, label %37, label %32

32:                                               ; preds = %23
  %33 = icmp sgt i32 %26, 2
  br i1 %33, label %34, label %58

34:                                               ; preds = %32
  %35 = add nsw i32 %26, -2
  %36 = zext i32 %35 to i64
  br label %50

37:                                               ; preds = %23
  %38 = icmp sgt i32 %26, 3
  br i1 %38, label %39, label %58

39:                                               ; preds = %37
  %40 = add nsw i32 %26, -3
  %41 = zext i32 %40 to i64
  br label %42

42:                                               ; preds = %39, %42
  %43 = phi i64 [ 0, %39 ], [ %48, %42 ]
  %44 = getelementptr inbounds [50 x [30 x i8]], [50 x [30 x i8]]* %2, i64 0, i64 %24, i64 %43
  %45 = load i8, i8* %44, align 1, !tbaa !11
  %46 = sext i8 %45 to i32
  %47 = call i32 @putchar(i32 %46)
  %48 = add nuw nsw i64 %43, 1
  %49 = icmp eq i64 %48, %41
  br i1 %49, label %58, label %42, !llvm.loop !12

50:                                               ; preds = %34, %50
  %51 = phi i64 [ 0, %34 ], [ %56, %50 ]
  %52 = getelementptr inbounds [50 x [30 x i8]], [50 x [30 x i8]]* %2, i64 0, i64 %24, i64 %51
  %53 = load i8, i8* %52, align 1, !tbaa !11
  %54 = sext i8 %53 to i32
  %55 = call i32 @putchar(i32 %54)
  %56 = add nuw nsw i64 %51, 1
  %57 = icmp eq i64 %56, %36
  br i1 %57, label %58, label %50, !llvm.loop !13

58:                                               ; preds = %50, %42, %32, %37
  %59 = call i32 @putchar(i32 10)
  %60 = add nuw nsw i64 %24, 1
  %61 = load i32, i32* %1, align 4, !tbaa !5
  %62 = sext i32 %61 to i64
  %63 = icmp slt i64 %60, %62
  br i1 %63, label %23, label %64, !llvm.loop !14

64:                                               ; preds = %58, %0, %10
  call void @llvm.lifetime.end.p0i8(i64 200, i8* nonnull %7) #5
  call void @llvm.lifetime.end.p0i8(i64 1500, i8* nonnull %6) #5
  call void @llvm.lifetime.end.p0i8(i64 4, i8* nonnull %4) #5
  ret i32 0
}

; Function Attrs: argmemonly mustprogress nofree nosync nounwind willreturn
declare void @llvm.lifetime.start.p0i8(i64 immarg, i8* nocapture) #1

; Function Attrs: nofree nounwind
declare noundef i32 @__isoc99_scanf(i8* nocapture noundef readonly, ...) local_unnamed_addr #2

; Function Attrs: argmemonly mustprogress nofree nounwind readonly willreturn
declare i64 @strlen(i8* nocapture) local_unnamed_addr #3

; Function Attrs: argmemonly mustprogress nofree nosync nounwind willreturn
declare void @llvm.lifetime.end.p0i8(i64 immarg, i8* nocapture) #1

; Function Attrs: nofree nounwind
declare noundef i32 @putchar(i32 noundef) local_unnamed_addr #4


!llvm.module.flags = !{!0, !1, !2, !3}
!llvm.ident = !{!4}

!0 = !{i32 1, !"wchar_size", i32 4}
!1 = !{i32 7, !"PIC Level", i32 2}
!2 = !{i32 7, !"PIE Level", i32 2}
!3 = !{i32 7, !"uwtable", i32 1}
!4 = !{!"clang version 13.0.0"}
!5 = !{!6, !6, i64 0}
!6 = !{!"int", !7, i64 0}
!7 = !{!"omnipotent char", !8, i64 0}
!8 = !{!"Simple C/C++ TBAA"}
!9 = distinct !{!9, !10}
!10 = !{!"llvm.loop.mustprogress"}
!11 = !{!7, !7, i64 0}
!12 = distinct !{!12, !10}
!13 = distinct !{!13, !10}
!14 = distinct !{!14, !10}
